target datalayout = "e-m:e-p270:32:32-p271:32:32-p272:64:64-i64:64-i128:128-f80:128-n8:16:32:64-S128"
target triple = "x86_64-pc-linux-gnu"

; Function Attrs: nounwind uwtable
define ptr @d3_np_fs(i32 noundef %0, ptr noundef %1, ptr noundef %2) #0 {
  %4 = alloca ptr, align 8
  %5 = alloca i32, align 4
  %6 = alloca ptr, align 8
  %7 = alloca ptr, align 8
  %8 = alloca i32, align 4
  %9 = alloca i32, align 4
  %10 = alloca ptr, align 8
  %11 = alloca i32, align 4
  %12 = alloca i32, align 4
  %13 = alloca float, align 4
  %14 = alloca i32, align 4
  store i32 %0, ptr %5, align 4, !tbaa !6
  store ptr %1, ptr %6, align 8, !tbaa !10
  store ptr %2, ptr %7, align 8, !tbaa !10
  %15 = load i32, ptr %5, align 4, !tbaa !6
  %16 = icmp sle i32 %15, 0
  br i1 %16, label %20, label %17

17:                                               ; preds = %3
  %18 = load i32, ptr %5, align 4, !tbaa !6
  %19 = icmp sgt i32 %18, 20
  br i1 %19, label %20, label %21

20:                                               ; preds = %17, %3
  store ptr null, ptr %4, align 8
  br label %200

21:                                               ; preds = %17
  call void @llvm.lifetime.start.p0(i64 4, ptr %8) #6
  store i32 0, ptr %8, align 4, !tbaa !6
  br label %22

22:                                               ; preds = %39, %21
  %23 = load i32, ptr %8, align 4, !tbaa !6
  %24 = load i32, ptr %5, align 4, !tbaa !6
  %25 = icmp slt i32 %23, %24
  br i1 %25, label %27, label %26

26:                                               ; preds = %22
  store i32 2, ptr %9, align 4
  br label %42

27:                                               ; preds = %22
  %28 = load ptr, ptr %6, align 8, !tbaa !10
  %29 = load i32, ptr %8, align 4, !tbaa !6
  %30 = mul nsw i32 %29, 3
  %31 = add nsw i32 1, %30
  %32 = sext i32 %31 to i64
  %33 = getelementptr inbounds float, ptr %28, i64 %32
  %34 = load float, ptr %33, align 4, !tbaa !13
  %35 = fpext reassoc nsz arcp contract afn float %34 to double
  %36 = fcmp reassoc nsz arcp contract afn oeq double %35, 0.000000e+00
  br i1 %36, label %37, label %38

37:                                               ; preds = %27
  store ptr null, ptr %4, align 8
  store i32 1, ptr %9, align 4
  br label %42

38:                                               ; preds = %27
  br label %39

39:                                               ; preds = %38
  %40 = load i32, ptr %8, align 4, !tbaa !6
  %41 = add nsw i32 %40, 1
  store i32 %41, ptr %8, align 4, !tbaa !6
  br label %22

42:                                               ; preds = %37, %26
  call void @llvm.lifetime.end.p0(i64 4, ptr %8) #6
  %43 = load i32, ptr %9, align 4
  switch i32 %43, label %202 [
    i32 2, label %44
    i32 1, label %200
  ]

44:                                               ; preds = %42
  call void @llvm.lifetime.start.p0(i64 8, ptr %10) #6
  %45 = load i32, ptr %5, align 4, !tbaa !6
  %46 = sext i32 %45 to i64
  %47 = call noalias ptr @calloc(i64 noundef %46, i64 noundef 4) #7
  store ptr %47, ptr %10, align 8, !tbaa !10
  call void @llvm.lifetime.start.p0(i64 4, ptr %11) #6
  store i32 0, ptr %11, align 4, !tbaa !6
  br label %48

48:                                               ; preds = %63, %44
  %49 = load i32, ptr %11, align 4, !tbaa !6
  %50 = load i32, ptr %5, align 4, !tbaa !6
  %51 = icmp slt i32 %49, %50
  br i1 %51, label %53, label %52

52:                                               ; preds = %48
  store i32 5, ptr %9, align 4
  call void @llvm.lifetime.end.p0(i64 4, ptr %11) #6
  br label %66

53:                                               ; preds = %48
  %54 = load ptr, ptr %7, align 8, !tbaa !10
  %55 = load i32, ptr %11, align 4, !tbaa !6
  %56 = sext i32 %55 to i64
  %57 = getelementptr inbounds float, ptr %54, i64 %56
  %58 = load float, ptr %57, align 4, !tbaa !13
  %59 = load ptr, ptr %10, align 8, !tbaa !10
  %60 = load i32, ptr %11, align 4, !tbaa !6
  %61 = sext i32 %60 to i64
  %62 = getelementptr inbounds float, ptr %59, i64 %61
  store float %58, ptr %62, align 4, !tbaa !13
  br label %63

63:                                               ; preds = %53
  %64 = load i32, ptr %11, align 4, !tbaa !6
  %65 = add nsw i32 %64, 1
  store i32 %65, ptr %11, align 4, !tbaa !6
  br label %48

66:                                               ; preds = %52
  call void @llvm.lifetime.start.p0(i64 4, ptr %12) #6
  store i32 1, ptr %12, align 4, !tbaa !6
  br label %67

67:                                               ; preds = %131, %66
  %68 = load i32, ptr %12, align 4, !tbaa !6
  %69 = load i32, ptr %5, align 4, !tbaa !6
  %70 = icmp slt i32 %68, %69
  br i1 %70, label %72, label %71

71:                                               ; preds = %67
  store i32 8, ptr %9, align 4
  call void @llvm.lifetime.end.p0(i64 4, ptr %12) #6
  br label %134

72:                                               ; preds = %67
  call void @llvm.lifetime.start.p0(i64 4, ptr %13) #6
  %73 = load ptr, ptr %6, align 8, !tbaa !10
  %74 = load i32, ptr %12, align 4, !tbaa !6
  %75 = sub nsw i32 %74, 1
  %76 = mul nsw i32 %75, 3
  %77 = add nsw i32 2, %76
  %78 = sext i32 %77 to i64
  %79 = getelementptr inbounds float, ptr %73, i64 %78
  %80 = load float, ptr %79, align 4, !tbaa !13
  %81 = load ptr, ptr %6, align 8, !tbaa !10
  %82 = load i32, ptr %12, align 4, !tbaa !6
  %83 = sub nsw i32 %82, 1
  %84 = mul nsw i32 %83, 3
  %85 = add nsw i32 1, %84
  %86 = sext i32 %85 to i64
  %87 = getelementptr inbounds float, ptr %81, i64 %86
  %88 = load float, ptr %87, align 4, !tbaa !13
  %89 = fdiv reassoc nsz arcp contract afn float %80, %88
  store float %89, ptr %13, align 4, !tbaa !13
  %90 = load ptr, ptr %6, align 8, !tbaa !10
  %91 = load i32, ptr %12, align 4, !tbaa !6
  %92 = mul nsw i32 %91, 3
  %93 = add nsw i32 1, %92
  %94 = sext i32 %93 to i64
  %95 = getelementptr inbounds float, ptr %90, i64 %94
  %96 = load float, ptr %95, align 4, !tbaa !13
  %97 = load float, ptr %13, align 4, !tbaa !13
  %98 = load ptr, ptr %6, align 8, !tbaa !10
  %99 = load i32, ptr %12, align 4, !tbaa !6
  %100 = mul nsw i32 %99, 3
  %101 = add nsw i32 0, %100
  %102 = sext i32 %101 to i64
  %103 = getelementptr inbounds float, ptr %98, i64 %102
  %104 = load float, ptr %103, align 4, !tbaa !13
  %105 = fmul reassoc nsz arcp contract afn float %97, %104
  %106 = fsub reassoc nsz arcp contract afn float %96, %105
  %107 = load ptr, ptr %6, align 8, !tbaa !10
  %108 = load i32, ptr %12, align 4, !tbaa !6
  %109 = mul nsw i32 %108, 3
  %110 = add nsw i32 1, %109
  %111 = sext i32 %110 to i64
  %112 = getelementptr inbounds float, ptr %107, i64 %111
  store float %106, ptr %112, align 4, !tbaa !13
  %113 = load ptr, ptr %10, align 8, !tbaa !10
  %114 = load i32, ptr %12, align 4, !tbaa !6
  %115 = sext i32 %114 to i64
  %116 = getelementptr inbounds float, ptr %113, i64 %115
  %117 = load float, ptr %116, align 4, !tbaa !13
  %118 = load float, ptr %13, align 4, !tbaa !13
  %119 = load ptr, ptr %10, align 8, !tbaa !10
  %120 = load i32, ptr %12, align 4, !tbaa !6
  %121 = sub nsw i32 %120, 1
  %122 = sext i32 %121 to i64
  %123 = getelementptr inbounds float, ptr %119, i64 %122
  %124 = load float, ptr %123, align 4, !tbaa !13
  %125 = fmul reassoc nsz arcp contract afn float %118, %124
  %126 = fsub reassoc nsz arcp contract afn float %117, %125
  %127 = load ptr, ptr %10, align 8, !tbaa !10
  %128 = load i32, ptr %12, align 4, !tbaa !6
  %129 = sext i32 %128 to i64
  %130 = getelementptr inbounds float, ptr %127, i64 %129
  store float %126, ptr %130, align 4, !tbaa !13
  call void @llvm.lifetime.end.p0(i64 4, ptr %13) #6
  br label %131

131:                                              ; preds = %72
  %132 = load i32, ptr %12, align 4, !tbaa !6
  %133 = add nsw i32 %132, 1
  store i32 %133, ptr %12, align 4, !tbaa !6
  br label %67

134:                                              ; preds = %71
  %135 = load ptr, ptr %10, align 8, !tbaa !10
  %136 = load i32, ptr %5, align 4, !tbaa !6
  %137 = sub nsw i32 %136, 1
  %138 = sext i32 %137 to i64
  %139 = getelementptr inbounds float, ptr %135, i64 %138
  %140 = load float, ptr %139, align 4, !tbaa !13
  %141 = load ptr, ptr %6, align 8, !tbaa !10
  %142 = load i32, ptr %5, align 4, !tbaa !6
  %143 = sub nsw i32 %142, 1
  %144 = mul nsw i32 %143, 3
  %145 = add nsw i32 1, %144
  %146 = sext i32 %145 to i64
  %147 = getelementptr inbounds float, ptr %141, i64 %146
  %148 = load float, ptr %147, align 4, !tbaa !13
  %149 = fdiv reassoc nsz arcp contract afn float %140, %148
  %150 = load ptr, ptr %10, align 8, !tbaa !10
  %151 = load i32, ptr %5, align 4, !tbaa !6
  %152 = sub nsw i32 %151, 1
  %153 = sext i32 %152 to i64
  %154 = getelementptr inbounds float, ptr %150, i64 %153
  store float %149, ptr %154, align 4, !tbaa !13
  call void @llvm.lifetime.start.p0(i64 4, ptr %14) #6
  %155 = load i32, ptr %5, align 4, !tbaa !6
  %156 = sub nsw i32 %155, 2
  store i32 %156, ptr %14, align 4, !tbaa !6
  br label %157

157:                                              ; preds = %195, %134
  %158 = load i32, ptr %14, align 4, !tbaa !6
  %159 = icmp sle i32 0, %158
  br i1 %159, label %161, label %160

160:                                              ; preds = %157
  store i32 11, ptr %9, align 4
  call void @llvm.lifetime.end.p0(i64 4, ptr %14) #6
  br label %198

161:                                              ; preds = %157
  %162 = load ptr, ptr %10, align 8, !tbaa !10
  %163 = load i32, ptr %14, align 4, !tbaa !6
  %164 = sext i32 %163 to i64
  %165 = getelementptr inbounds float, ptr %162, i64 %164
  %166 = load float, ptr %165, align 4, !tbaa !13
  %167 = load ptr, ptr %6, align 8, !tbaa !10
  %168 = load i32, ptr %14, align 4, !tbaa !6
  %169 = add nsw i32 %168, 1
  %170 = mul nsw i32 %169, 3
  %171 = add nsw i32 0, %170
  %172 = sext i32 %171 to i64
  %173 = getelementptr inbounds float, ptr %167, i64 %172
  %174 = load float, ptr %173, align 4, !tbaa !13
  %175 = load ptr, ptr %10, align 8, !tbaa !10
  %176 = load i32, ptr %14, align 4, !tbaa !6
  %177 = add nsw i32 %176, 1
  %178 = sext i32 %177 to i64
  %179 = getelementptr inbounds float, ptr %175, i64 %178
  %180 = load float, ptr %179, align 4, !tbaa !13
  %181 = fmul reassoc nsz arcp contract afn float %174, %180
  %182 = fsub reassoc nsz arcp contract afn float %166, %181
  %183 = load ptr, ptr %6, align 8, !tbaa !10
  %184 = load i32, ptr %14, align 4, !tbaa !6
  %185 = mul nsw i32 %184, 3
  %186 = add nsw i32 1, %185
  %187 = sext i32 %186 to i64
  %188 = getelementptr inbounds float, ptr %183, i64 %187
  %189 = load float, ptr %188, align 4, !tbaa !13
  %190 = fdiv reassoc nsz arcp contract afn float %182, %189
  %191 = load ptr, ptr %10, align 8, !tbaa !10
  %192 = load i32, ptr %14, align 4, !tbaa !6
  %193 = sext i32 %192 to i64
  %194 = getelementptr inbounds float, ptr %191, i64 %193
  store float %190, ptr %194, align 4, !tbaa !13
  br label %195

195:                                              ; preds = %161
  %196 = load i32, ptr %14, align 4, !tbaa !6
  %197 = add nsw i32 %196, -1
  store i32 %197, ptr %14, align 4, !tbaa !6
  br label %157

198:                                              ; preds = %160
  %199 = load ptr, ptr %10, align 8, !tbaa !10
  store ptr %199, ptr %4, align 8
  store i32 1, ptr %9, align 4
  call void @llvm.lifetime.end.p0(i64 8, ptr %10) #6
  br label %200

200:                                              ; preds = %198, %42, %20
  %201 = load ptr, ptr %4, align 8
  ret ptr %201

202:                                              ; preds = %42
  unreachable
}