; Function Attrs: nofree nounwind uwtable
define noalias ptr @d3_np_fs(i32 noundef %0, ptr noundef captures(none) %1, ptr noundef readonly captures(none) %2) local_unnamed_addr #4 {
  %4 = add i32 %0, -21
  %or.cond = icmp ult i32 %4, -20
  br i1 %or.cond, label %.loopexit, label %.lr.ph.preheader

.lr.ph.preheader:                                 ; preds = %3
  %invariant.gep = getelementptr inbounds nuw i8, ptr %1, i64 4
  %wide.trip.count = zext nneg i32 %0 to i64
  br label %.lr.ph

5:                                                ; preds = %.lr.ph
  %indvars.iv.next = add nuw nsw i64 %indvars.iv, 1
  %exitcond.not = icmp eq i64 %indvars.iv.next, %wide.trip.count
  br i1 %exitcond.not, label %.preheader, label %.lr.ph

.lr.ph:                                           ; preds = %.lr.ph.preheader, %5
  %indvars.iv = phi i64 [ 0, %.lr.ph.preheader ], [ %indvars.iv.next, %5 ]
  %gep.idx = mul nuw nsw i64 %indvars.iv, 12
  %gep = getelementptr inbounds nuw i8, ptr %invariant.gep, i64 %gep.idx
  %6 = load float, ptr %gep, align 4, !tbaa !6
  %7 = fcmp reassoc nsz arcp contract afn oeq float %6, 0.000000e+00
  br i1 %7, label %.loopexit, label %5

.preheader:                                       ; preds = %5
  %8 = tail call noalias ptr @calloc(i64 noundef %wide.trip.count, i64 noundef 4) #12
  %9 = shl nuw nsw i64 %wide.trip.count, 2
  tail call void @llvm.memcpy.p0.p0.i64(ptr align 4 %8, ptr align 4 %2, i64 %9, i1 false), !tbaa !6
  %10 = icmp sgt i32 %0, 1
  br i1 %10, label %.lr.ph74.preheader, label %._crit_edge75.thread

._crit_edge75.thread:                             ; preds = %.preheader
  %11 = add nsw i32 %0, -1
  %12 = zext nneg i32 %11 to i64
  %13 = getelementptr inbounds nuw float, ptr %8, i64 %12
  %14 = load float, ptr %13, align 4, !tbaa !6
  %15 = mul nuw nsw i32 %11, 3
  %16 = zext nneg i32 %15 to i64
  %17 = getelementptr inbounds nuw float, ptr %1, i64 %16
  %18 = getelementptr inbounds nuw i8, ptr %17, i64 4
  %19 = load float, ptr %18, align 4, !tbaa !6
  %20 = fdiv reassoc nsz arcp contract afn float %14, %19
  store float %20, ptr %13, align 4, !tbaa !6
  br label %.loopexit

.lr.ph74.preheader:                               ; preds = %.preheader
  %.pre = load float, ptr %8, align 4, !tbaa !6
  br label %.lr.ph74

._crit_edge75:                                    ; preds = %.lr.ph74
  %21 = add nsw i32 %0, -1
  %22 = zext nneg i32 %21 to i64
  %23 = getelementptr inbounds nuw float, ptr %8, i64 %22
  %24 = load float, ptr %23, align 4, !tbaa !6
  %25 = mul nuw nsw i32 %21, 3
  %26 = zext nneg i32 %25 to i64
  %27 = getelementptr inbounds nuw float, ptr %1, i64 %26
  %28 = getelementptr inbounds nuw i8, ptr %27, i64 4
  %29 = load float, ptr %28, align 4, !tbaa !6
  %30 = fdiv reassoc nsz arcp contract afn float %24, %29
  store float %30, ptr %23, align 4, !tbaa !6
  %31 = add nsw i32 %0, -2
  %32 = zext i32 %31 to i64
  %33 = shl nuw nsw i64 %32, 2
  %34 = getelementptr i8, ptr %8, i64 %33
  %scevgep = getelementptr i8, ptr %34, i64 4
  %load_initial = load float, ptr %scevgep, align 4
  %invariant.gep100 = getelementptr i8, ptr %1, i64 12
  br label %.lr.ph80

.lr.ph74:                                         ; preds = %.lr.ph74.preheader, %.lr.ph74
  %35 = phi float [ %.pre, %.lr.ph74.preheader ], [ %51, %.lr.ph74 ]
  %indvars.iv86 = phi i64 [ 1, %.lr.ph74.preheader ], [ %indvars.iv.next87, %.lr.ph74 ]
  %.idx = mul i64 %indvars.iv86, 12
  %36 = getelementptr i8, ptr %1, i64 %.idx
  %37 = getelementptr i8, ptr %36, i64 -4
  %38 = load float, ptr %37, align 4, !tbaa !6
  %39 = getelementptr i8, ptr %36, i64 -8
  %40 = load float, ptr %39, align 4, !tbaa !6
  %41 = fdiv reassoc nsz arcp contract afn float %38, %40
  %.idx95 = mul nuw nsw i64 %indvars.iv86, 12
  %42 = getelementptr inbounds nuw i8, ptr %1, i64 %.idx95
  %43 = getelementptr inbounds nuw i8, ptr %42, i64 4
  %44 = load float, ptr %43, align 4, !tbaa !6
  %45 = load float, ptr %42, align 4, !tbaa !6
  %46 = fmul reassoc nsz arcp contract afn float %45, %41
  %47 = fsub reassoc nsz arcp contract afn float %44, %46
  store float %47, ptr %43, align 4, !tbaa !6
  %48 = getelementptr inbounds nuw float, ptr %8, i64 %indvars.iv86
  %49 = load float, ptr %48, align 4, !tbaa !6
  %50 = fmul reassoc nsz arcp contract afn float %35, %41
  %51 = fsub reassoc nsz arcp contract afn float %49, %50
  store float %51, ptr %48, align 4, !tbaa !6
  %indvars.iv.next87 = add nuw nsw i64 %indvars.iv86, 1
  %exitcond90.not = icmp eq i64 %indvars.iv.next87, %wide.trip.count
  br i1 %exitcond90.not, label %._crit_edge75, label %.lr.ph74

.lr.ph80:                                         ; preds = %._crit_edge75, %.lr.ph80
  %store_forwarded = phi float [ %load_initial, %._crit_edge75 ], [ %59, %.lr.ph80 ]
  %indvars.iv91 = phi i64 [ %32, %._crit_edge75 ], [ %indvars.iv.next92, %.lr.ph80 ]
  %52 = getelementptr inbounds nuw float, ptr %8, i64 %indvars.iv91
  %53 = load float, ptr %52, align 4, !tbaa !6
  %54 = mul nuw i64 %indvars.iv91, 12
  %gep101 = getelementptr i8, ptr %invariant.gep100, i64 %54
  %55 = load float, ptr %gep101, align 4, !tbaa !6
  %56 = fmul reassoc nsz arcp contract afn float %store_forwarded, %55
  %57 = fsub reassoc nsz arcp contract afn float %53, %56
  %gep77.idx = mul nuw nsw i64 %indvars.iv91, 12
  %gep77 = getelementptr inbounds nuw i8, ptr %invariant.gep, i64 %gep77.idx
  %58 = load float, ptr %gep77, align 4, !tbaa !6
  %59 = fdiv reassoc nsz arcp contract afn float %57, %58
  store float %59, ptr %52, align 4, !tbaa !6
  %indvars.iv.next92 = add nsw i64 %indvars.iv91, -1
  %.not = icmp eq i64 %indvars.iv91, 0
  br i1 %.not, label %.loopexit, label %.lr.ph80

.loopexit:                                        ; preds = %.lr.ph, %.lr.ph80, %._crit_edge75.thread, %3
  %.058 = phi ptr [ null, %3 ], [ %8, %._crit_edge75.thread ], [ %8, %.lr.ph80 ], [ null, %.lr.ph ]
  ret ptr %.058
}